target datalayout = "e-m:e-p270:32:32-p271:32:32-p272:64:64-i64:64-i128:128-f80:128-n8:16:32:64-S128"
target triple = "x86_64-pc-linux-gnu"

%class.OopHandle = type { ptr }
%class.JavaThread = type { %class.Thread, i8, %class.OopHandle, %class.OopHandle, %class.OopHandle, %class.OopHandle, %class.JavaFrameAnchor, ptr, %struct.JNIEnv_, ptr, ptr, ptr, ptr, ptr, ptr, ptr, ptr, %class.MemRegion, ptr, i8, ptr, ptr, ptr, i32, i32, %"struct.SafepointMechanism::ThreadData", ptr, ptr, i32, i32, i8, i8, i8, i8, i8, i8, i8, i32, i8, i32, i8, i8, i64, %union.anon, ptr, ptr, i64, i64, ptr, ptr, %class.StackOverflow, ptr, ptr, ptr, i32, i32, ptr, i32, i32, i32, ptr, ptr, i32, i64, i64, %class.StackWatermarks, %class.HandshakeState, ptr, i32, ptr, i32, i32, ptr, %class.Parker, ptr, ptr, %class.LockStack }
%class.Thread = type { %class.ThreadShadow.base, i64, [43 x i64], ptr, ptr, i32, ptr, i64, i64, %class.ThreadLocalAllocBuffer, i64, %class.ThreadHeapSampler, %class.ThreadStatisticalInfo, %class.JfrThreadLocal, ptr, ptr, ptr, ptr, ptr, ptr, i64, i32, i32, ptr, i32, i32, i32, i32, i8, ptr }
%class.ThreadShadow.base = type <{ ptr, ptr, ptr, i32 }>
%class.ThreadLocalAllocBuffer = type <{ ptr, ptr, ptr, ptr, ptr, i64, i64, i64, i64, i32, i32, i32, i32, i64, %class.AdaptiveWeightedAverage, [4 x i8] }>
%class.AdaptiveWeightedAverage = type { float, i32, i32, i8, float }
%class.ThreadHeapSampler = type { i64 }
%class.ThreadStatisticalInfo = type { i64, i64 }
%class.JfrThreadLocal = type <{ ptr, ptr, ptr, ptr, ptr, ptr, ptr, ptr, ptr, ptr, %class.RefCountHandle, i64, i64, i64, i64, i64, i64, i64, i64, i64, i64, i64, i32, i32, i32, i16, i8, i8, i8, i8, i8, [5 x i8] }>
%class.RefCountHandle = type { ptr }
%class.JavaFrameAnchor = type { ptr, ptr, ptr }
%struct.JNIEnv_ = type { ptr }
%class.MemRegion = type { ptr, i64 }
%"struct.SafepointMechanism::ThreadData" = type { i64, i64 }
%union.anon = type { ptr }
%class.StackOverflow = type { i32, ptr, ptr, ptr, ptr, ptr, ptr }
%class.StackWatermarks = type { ptr }
%class.HandshakeState = type <{ ptr, %class.FilterQueue, %class.Monitor, ptr, i8, i8, i8, [5 x i8] }>
%class.FilterQueue = type { ptr }
%class.Monitor = type { %class.Mutex }
%class.Mutex = type { ptr, %class.PlatformMonitor, ptr }
%class.PlatformMonitor = type { %class.PlatformMutex, %union.pthread_cond_t }
%class.PlatformMutex = type { %union.pthread_mutex_t }
%union.pthread_mutex_t = type { %struct.__pthread_mutex_s }
%struct.__pthread_mutex_s = type { i32, i32, i32, i32, i32, i16, i16, %struct.__pthread_internal_list }
%struct.__pthread_internal_list = type { ptr, ptr }
%union.pthread_cond_t = type { %struct.__pthread_cond_s }
%struct.__pthread_cond_s = type { %union.__atomic_wide_counter, %union.__atomic_wide_counter, [2 x i32], [2 x i32], i32, i32, [2 x i32] }
%union.__atomic_wide_counter = type { i64 }
%class.Parker = type { %class.PlatformParker }
%class.PlatformParker = type { i32, i32, [1 x %union.pthread_mutex_t], [2 x %union.pthread_cond_t] }
%class.LockStack = type { i32, i64, [8 x ptr] }
%class.JVMCIObject = type <{ ptr, i8, [7 x i8] }>
%class.JVMCIRuntime = type <{ i32, [4 x i8], %class.JVMCIObject, ptr, ptr, i32, i32, ptr, ptr, %class.GrowableArray, i32, i8, [3 x i8] }>
%class.GrowableArray = type { %class.GrowableArrayWithAllocator, %class.GrowableArrayMetadata }
%class.GrowableArrayWithAllocator = type { %class.GrowableArrayView }
%class.GrowableArrayView = type { %class.GrowableArrayBase, ptr }
%class.GrowableArrayBase = type { i32, i32 }
%class.GrowableArrayMetadata = type { i64 }

@.str = private unnamed_addr constant [41 x i8] c"src/hotspot/share/jvmci/jvmciRuntime.cpp\00", align 1
@g_assert_poison = external global ptr, align 8
@.str.129 = private unnamed_addr constant [73 x i8] c"Fatal error in JVMCI shared library JavaVM[%d] owned by JVMCI runtime %d\00", align 1
@.str.130 = private unnamed_addr constant [48 x i8] c"thread %ld: Fatal error in JVMCI shared library\00", align 1

; Function Attrs: mustprogress nounwind uwtable
define linkonce_odr hidden noundef i32 @_ZNK12JVMCIRuntime2idEv(ptr noundef nonnull align 8 dereferenceable(93) %0) #1 comdat align 2 {
  %2 = alloca ptr, align 8
  store ptr %0, ptr %2, align 8
  %3 = load ptr, ptr %2, align 8
  %4 = getelementptr inbounds %class.JVMCIRuntime, ptr %3, i32 0, i32 6
  %5 = load i32, ptr %4, align 4
  ret i32 %5
}

; Function Attrs: mustprogress nounwind uwtable
define linkonce_odr hidden noundef i32 @_ZN12JVMCIRuntime28get_shared_library_javavm_idEv(ptr noundef nonnull align 8 dereferenceable(93) %0) #1 comdat align 2 {
  %2 = alloca ptr, align 8
  store ptr %0, ptr %2, align 8
  %3 = load ptr, ptr %2, align 8
  %4 = getelementptr inbounds %class.JVMCIRuntime, ptr %3, i32 0, i32 5
  %5 = load i32, ptr %4, align 8
  ret i32 %5
}

; Function Attrs: mustprogress nounwind uwtable
define linkonce_odr hidden noundef ptr @_ZNK10JavaThread16libjvmci_runtimeEv(ptr noundef nonnull align 8 dereferenceable(1800) %0) #1 comdat align 2 {
  %2 = alloca ptr, align 8
  store ptr %0, ptr %2, align 8
  %3 = load ptr, ptr %2, align 8
  %4 = getelementptr inbounds %class.JavaThread, ptr %3, i32 0, i32 44
  %5 = load ptr, ptr %4, align 8
  ret ptr %5
}

; Function Attrs: mustprogress nounwind uwtable
define linkonce_odr hidden noundef ptr @_ZN10JavaThread4castEP6Thread(ptr noundef %0) #1 comdat align 2 {
  %2 = alloca ptr, align 8
  store ptr %0, ptr %2, align 8
  %3 = load ptr, ptr %2, align 8
  ret ptr %3
}

; Function Attrs: mustprogress nounwind uwtable
define linkonce_odr hidden noundef ptr @_ZN6Thread20current_or_null_safeEv() #1 comdat align 2 {
  %1 = alloca ptr, align 8
  %2 = call noundef zeroext i1 @_ZN18ThreadLocalStorage14is_initializedEv()
  br i1 %2, label %3, label %5

3:                                                ; preds = %0
  %4 = call noundef ptr @_ZN18ThreadLocalStorage6threadEv()
  store ptr %4, ptr %1, align 8
  br label %6

5:                                                ; preds = %0
  store ptr null, ptr %1, align 8
  br label %6

6:                                                ; preds = %5, %3
  %7 = load ptr, ptr %1, align 8
  ret ptr %7
}

; Function Attrs: mustprogress nounwind uwtable
define internal void @_ZL6_fatalv() #1 {
  %1 = alloca ptr, align 8
  %2 = alloca ptr, align 8
  %3 = alloca ptr, align 8
  %4 = alloca i32, align 4
  %5 = alloca i64, align 8
  %6 = call noundef ptr @_ZN6Thread20current_or_null_safeEv()
  store ptr %6, ptr %1, align 8
  %7 = load ptr, ptr %1, align 8
  %8 = icmp ne ptr %7, null
  br i1 %8, label %9, label %32

9:                                                ; preds = %0
  %10 = load ptr, ptr %1, align 8
  %11 = load ptr, ptr %10, align 8
  %12 = getelementptr inbounds ptr, ptr %11, i64 7
  %13 = load ptr, ptr %12, align 8
  %14 = call noundef zeroext i1 %13(ptr noundef nonnull align 8 dereferenceable(888) %10)
  br i1 %14, label %15, label %32

15:                                               ; preds = %9
  %16 = load ptr, ptr %1, align 8
  %17 = call noundef ptr @_ZN10JavaThread4castEP6Thread(ptr noundef %16)
  store ptr %17, ptr %2, align 8
  %18 = load ptr, ptr %2, align 8
  %19 = call noundef ptr @_ZNK10JavaThread16libjvmci_runtimeEv(ptr noundef nonnull align 8 dereferenceable(1800) %18)
  store ptr %19, ptr %3, align 8
  %20 = load ptr, ptr %3, align 8
  %21 = icmp ne ptr %20, null
  br i1 %21, label %22, label %31

22:                                               ; preds = %15
  %23 = load ptr, ptr %3, align 8
  %24 = call noundef i32 @_ZN12JVMCIRuntime28get_shared_library_javavm_idEv(ptr noundef nonnull align 8 dereferenceable(93) %23)
  store i32 %24, ptr %4, align 4
  br label %25

25:                                               ; preds = %22
  %26 = load ptr, ptr @g_assert_poison, align 8
  store i8 88, ptr %26, align 1
  %27 = load i32, ptr %4, align 4
  %28 = load ptr, ptr %3, align 8
  %29 = call noundef i32 @_ZNK12JVMCIRuntime2idEv(ptr noundef nonnull align 8 dereferenceable(93) %28)
  call void (i32, ptr, i32, ptr, ...) @_Z12report_fatal11VMErrorTypePKciS1_z(i32 noundef -536870912, ptr noundef @.str, i32 noundef 1007, ptr noundef @.str.129, i32 noundef %27, i32 noundef %29) #13
  unreachable

30:                                               ; No predecessors!
  br label %31

31:                                               ; preds = %30, %15
  br label %32

32:                                               ; preds = %31, %9, %0
  %33 = call noundef i64 @_ZN2os17current_thread_idEv()
  store i64 %33, ptr %5, align 8
  br label %34

34:                                               ; preds = %32
  %35 = load ptr, ptr @g_assert_poison, align 8
  store i8 88, ptr %35, align 1
  %36 = load i64, ptr %5, align 8
  call void (i32, ptr, i32, ptr, ...) @_Z12report_fatal11VMErrorTypePKciS1_z(i32 noundef -536870912, ptr noundef @.str, i32 noundef 1011, ptr noundef @.str.130, i64 noundef %36) #13
  unreachable

37:                                               ; No predecessors!
  ret void
}