; Function Attrs: mustprogress noreturn nounwind uwtable
define internal void @_ZL6_fatalv() #4 {
  %1 = tail call noundef zeroext i1 @_ZN18ThreadLocalStorage14is_initializedEv() #15
  br i1 %1, label %_ZN6Thread20current_or_null_safeEv.exit, label %_ZN6Thread20current_or_null_safeEv.exit.thread

_ZN6Thread20current_or_null_safeEv.exit:          ; preds = %0
  %2 = tail call noundef ptr @_ZN18ThreadLocalStorage6threadEv() #15
  %.not = icmp eq ptr %2, null
  br i1 %.not, label %_ZN6Thread20current_or_null_safeEv.exit.thread, label %3

3:                                                ; preds = %_ZN6Thread20current_or_null_safeEv.exit
  %4 = load ptr, ptr %2, align 8
  %5 = getelementptr inbounds i8, ptr %4, i64 56
  %6 = load ptr, ptr %5, align 8
  %7 = tail call noundef zeroext i1 %6(ptr noundef nonnull align 8 dereferenceable(888) %2) #15
  br i1 %7, label %8, label %_ZN6Thread20current_or_null_safeEv.exit.thread

8:                                                ; preds = %3
  %9 = getelementptr inbounds i8, ptr %2, i64 1176
  %10 = load ptr, ptr %9, align 8
  %.not9 = icmp eq ptr %10, null
  br i1 %.not9, label %_ZN6Thread20current_or_null_safeEv.exit.thread, label %11

11:                                               ; preds = %8
  %12 = getelementptr inbounds i8, ptr %10, i64 40
  %13 = load i32, ptr %12, align 8
  %14 = load ptr, ptr @g_assert_poison, align 8
  store i8 88, ptr %14, align 1
  %15 = getelementptr inbounds i8, ptr %10, i64 44
  %16 = load i32, ptr %15, align 4
  tail call void (i32, ptr, i32, ptr, ...) @_Z12report_fatal11VMErrorTypePKciS1_z(i32 noundef -536870912, ptr noundef nonnull @.str, i32 noundef 1007, ptr noundef nonnull @.str.129, i32 noundef %13, i32 noundef %16) #17
  unreachable

_ZN6Thread20current_or_null_safeEv.exit.thread:   ; preds = %0, %8, %3, %_ZN6Thread20current_or_null_safeEv.exit
  %17 = tail call noundef i64 @_ZN2os17current_thread_idEv() #15
  %18 = load ptr, ptr @g_assert_poison, align 8
  store i8 88, ptr %18, align 1
  tail call void (i32, ptr, i32, ptr, ...) @_Z12report_fatal11VMErrorTypePKciS1_z(i32 noundef -536870912, ptr noundef nonnull @.str, i32 noundef 1011, ptr noundef nonnull @.str.130, i64 noundef %17) #17
  unreachable
}